
AVRGCC6.elf:     file format elf32-avr

Sections:
Idx Name          Size      VMA       LMA       File off  Algn
  0 .text         00000688  00000000  00000000  00000094  2**1
                  CONTENTS, ALLOC, LOAD, READONLY, CODE
  1 .data         00000086  00800060  00000688  0000071c  2**0
                  CONTENTS, ALLOC, LOAD, DATA
  2 .bss          00000085  008000e6  008000e6  000007a2  2**0
                  ALLOC
  3 .stab         000006cc  00000000  00000000  000007a4  2**2
                  CONTENTS, READONLY, DEBUGGING
  4 .stabstr      00000090  00000000  00000000  00000e70  2**0
                  CONTENTS, READONLY, DEBUGGING
  5 .debug_aranges 00000080  00000000  00000000  00000f00  2**0
                  CONTENTS, READONLY, DEBUGGING
  6 .debug_pubnames 000001d9  00000000  00000000  00000f80  2**0
                  CONTENTS, READONLY, DEBUGGING
  7 .debug_info   00000a08  00000000  00000000  00001159  2**0
                  CONTENTS, READONLY, DEBUGGING
  8 .debug_abbrev 000004a3  00000000  00000000  00001b61  2**0
                  CONTENTS, READONLY, DEBUGGING
  9 .debug_line   00000b89  00000000  00000000  00002004  2**0
                  CONTENTS, READONLY, DEBUGGING
 10 .debug_frame  000001c0  00000000  00000000  00002b90  2**2
                  CONTENTS, READONLY, DEBUGGING
 11 .debug_str    000002a3  00000000  00000000  00002d50  2**0
                  CONTENTS, READONLY, DEBUGGING
 12 .debug_loc    00000298  00000000  00000000  00002ff3  2**0
                  CONTENTS, READONLY, DEBUGGING
 13 .debug_pubtypes 000000ac  00000000  00000000  0000328b  2**0
                  CONTENTS, READONLY, DEBUGGING
 14 .debug_ranges 00000018  00000000  00000000  00003337  2**0
                  CONTENTS, READONLY, DEBUGGING

Disassembly of section .text:

00000000 <__vectors>:
   0:	0c 94 2a 00 	jmp	0x54	; 0x54 <__ctors_end>
   4:	0c 94 df 02 	jmp	0x5be	; 0x5be <__vector_1>
   8:	0c 94 a3 02 	jmp	0x546	; 0x546 <__vector_2>
   c:	0c 94 47 00 	jmp	0x8e	; 0x8e <__bad_interrupt>
  10:	0c 94 47 00 	jmp	0x8e	; 0x8e <__bad_interrupt>
  14:	0c 94 47 00 	jmp	0x8e	; 0x8e <__bad_interrupt>
  18:	0c 94 47 00 	jmp	0x8e	; 0x8e <__bad_interrupt>
  1c:	0c 94 47 00 	jmp	0x8e	; 0x8e <__bad_interrupt>
  20:	0c 94 47 00 	jmp	0x8e	; 0x8e <__bad_interrupt>
  24:	0c 94 47 00 	jmp	0x8e	; 0x8e <__bad_interrupt>
  28:	0c 94 47 00 	jmp	0x8e	; 0x8e <__bad_interrupt>
  2c:	0c 94 47 00 	jmp	0x8e	; 0x8e <__bad_interrupt>
  30:	0c 94 47 00 	jmp	0x8e	; 0x8e <__bad_interrupt>
  34:	0c 94 47 00 	jmp	0x8e	; 0x8e <__bad_interrupt>
  38:	0c 94 47 00 	jmp	0x8e	; 0x8e <__bad_interrupt>
  3c:	0c 94 47 00 	jmp	0x8e	; 0x8e <__bad_interrupt>
  40:	0c 94 47 00 	jmp	0x8e	; 0x8e <__bad_interrupt>
  44:	0c 94 47 00 	jmp	0x8e	; 0x8e <__bad_interrupt>
  48:	0c 94 47 00 	jmp	0x8e	; 0x8e <__bad_interrupt>
  4c:	0c 94 47 00 	jmp	0x8e	; 0x8e <__bad_interrupt>
  50:	0c 94 47 00 	jmp	0x8e	; 0x8e <__bad_interrupt>

00000054 <__ctors_end>:
  54:	11 24       	eor	r1, r1
  56:	1f be       	out	0x3f, r1	; 63
  58:	cf e5       	ldi	r28, 0x5F	; 95
  5a:	d4 e0       	ldi	r29, 0x04	; 4
  5c:	de bf       	out	0x3e, r29	; 62
  5e:	cd bf       	out	0x3d, r28	; 61

00000060 <__do_copy_data>:
  60:	10 e0       	ldi	r17, 0x00	; 0
  62:	a0 e6       	ldi	r26, 0x60	; 96
  64:	b0 e0       	ldi	r27, 0x00	; 0
  66:	e8 e8       	ldi	r30, 0x88	; 136
  68:	f6 e0       	ldi	r31, 0x06	; 6
  6a:	02 c0       	rjmp	.+4      	; 0x70 <__do_copy_data+0x10>
  6c:	05 90       	lpm	r0, Z+
  6e:	0d 92       	st	X+, r0
  70:	a6 3e       	cpi	r26, 0xE6	; 230
  72:	b1 07       	cpc	r27, r17
  74:	d9 f7       	brne	.-10     	; 0x6c <__do_copy_data+0xc>

00000076 <__do_clear_bss>:
  76:	11 e0       	ldi	r17, 0x01	; 1
  78:	a6 ee       	ldi	r26, 0xE6	; 230
  7a:	b0 e0       	ldi	r27, 0x00	; 0
  7c:	01 c0       	rjmp	.+2      	; 0x80 <.do_clear_bss_start>

0000007e <.do_clear_bss_loop>:
  7e:	1d 92       	st	X+, r1

00000080 <.do_clear_bss_start>:
  80:	ab 36       	cpi	r26, 0x6B	; 107
  82:	b1 07       	cpc	r27, r17
  84:	e1 f7       	brne	.-8      	; 0x7e <.do_clear_bss_loop>
  86:	0e 94 6c 01 	call	0x2d8	; 0x2d8 <main>
  8a:	0c 94 42 03 	jmp	0x684	; 0x684 <_exit>

0000008e <__bad_interrupt>:
  8e:	0c 94 00 00 	jmp	0	; 0x0 <__vectors>

00000092 <I2C_Init>:
  92:	83 e0       	ldi	r24, 0x03	; 3
  94:	80 b9       	out	0x00, r24	; 0
  96:	08 95       	ret

00000098 <I2C_Start>:
  98:	84 ea       	ldi	r24, 0xA4	; 164
  9a:	86 bf       	out	0x36, r24	; 54
  9c:	06 b6       	in	r0, 0x36	; 54
  9e:	07 fe       	sbrs	r0, 7
  a0:	fd cf       	rjmp	.-6      	; 0x9c <I2C_Start+0x4>
  a2:	08 95       	ret

000000a4 <I2C_Transmit>:
  a4:	83 b9       	out	0x03, r24	; 3
  a6:	84 e8       	ldi	r24, 0x84	; 132
  a8:	86 bf       	out	0x36, r24	; 54
  aa:	06 b6       	in	r0, 0x36	; 54
  ac:	07 fe       	sbrs	r0, 7
  ae:	fd cf       	rjmp	.-6      	; 0xaa <I2C_Transmit+0x6>
  b0:	08 95       	ret

000000b2 <I2C_Stop>:
  b2:	84 e9       	ldi	r24, 0x94	; 148
  b4:	86 bf       	out	0x36, r24	; 54
  b6:	08 95       	ret

000000b8 <I2C_TransmitByAddr>:
  b8:	0f 93       	push	r16
  ba:	1f 93       	push	r17
  bc:	18 2f       	mov	r17, r24
  be:	06 2f       	mov	r16, r22
  c0:	0e 94 4c 00 	call	0x98	; 0x98 <I2C_Start>
  c4:	80 2f       	mov	r24, r16
  c6:	0e 94 52 00 	call	0xa4	; 0xa4 <I2C_Transmit>
  ca:	81 2f       	mov	r24, r17
  cc:	0e 94 52 00 	call	0xa4	; 0xa4 <I2C_Transmit>
  d0:	0e 94 59 00 	call	0xb2	; 0xb2 <I2C_Stop>
  d4:	1f 91       	pop	r17
  d6:	0f 91       	pop	r16
  d8:	08 95       	ret

000000da <LCD_BackLight>:
  da:	88 23       	and	r24, r24
  dc:	19 f0       	breq	.+6      	; 0xe4 <LCD_BackLight+0xa>
  de:	81 30       	cpi	r24, 0x01	; 1
  e0:	91 f4       	brne	.+36     	; 0x106 <LCD_BackLight+0x2c>
  e2:	09 c0       	rjmp	.+18     	; 0xf6 <LCD_BackLight+0x1c>
  e4:	80 91 e6 00 	lds	r24, 0x00E6
  e8:	87 7f       	andi	r24, 0xF7	; 247
  ea:	80 93 e6 00 	sts	0x00E6, r24
  ee:	6e e4       	ldi	r22, 0x4E	; 78
  f0:	0e 94 5c 00 	call	0xb8	; 0xb8 <I2C_TransmitByAddr>
  f4:	08 95       	ret
  f6:	80 91 e6 00 	lds	r24, 0x00E6
  fa:	88 60       	ori	r24, 0x08	; 8
  fc:	80 93 e6 00 	sts	0x00E6, r24
 100:	6e e4       	ldi	r22, 0x4E	; 78
 102:	0e 94 5c 00 	call	0xb8	; 0xb8 <I2C_TransmitByAddr>
 106:	08 95       	ret

00000108 <sendHalfByte>:
 108:	1f 93       	push	r17
 10a:	18 2f       	mov	r17, r24
 10c:	80 91 e6 00 	lds	r24, 0x00E6
 110:	84 60       	ori	r24, 0x04	; 4
 112:	80 93 e6 00 	sts	0x00E6, r24
 116:	6e e4       	ldi	r22, 0x4E	; 78
 118:	0e 94 5c 00 	call	0xb8	; 0xb8 <I2C_TransmitByAddr>
	#else
		//round up by default
		__ticks_dc = (uint32_t)(ceil(fabs(__tmp)));
	#endif

	__builtin_avr_delay_cycles(__ticks_dc);
 11c:	80 e1       	ldi	r24, 0x10	; 16
 11e:	8a 95       	dec	r24
 120:	f1 f7       	brne	.-4      	; 0x11e <sendHalfByte+0x16>
 122:	00 c0       	rjmp	.+0      	; 0x124 <sendHalfByte+0x1c>
 124:	12 95       	swap	r17
 126:	10 7f       	andi	r17, 0xF0	; 240
 128:	80 91 e6 00 	lds	r24, 0x00E6
 12c:	81 2b       	or	r24, r17
 12e:	6e e4       	ldi	r22, 0x4E	; 78
 130:	0e 94 5c 00 	call	0xb8	; 0xb8 <I2C_TransmitByAddr>
 134:	80 91 e6 00 	lds	r24, 0x00E6
 138:	8b 7f       	andi	r24, 0xFB	; 251
 13a:	80 93 e6 00 	sts	0x00E6, r24
 13e:	6e e4       	ldi	r22, 0x4E	; 78
 140:	0e 94 5c 00 	call	0xb8	; 0xb8 <I2C_TransmitByAddr>
 144:	1f 91       	pop	r17
 146:	08 95       	ret

00000148 <sendByte>:
 148:	1f 93       	push	r17
 14a:	18 2f       	mov	r17, r24
 14c:	66 23       	and	r22, r22
 14e:	49 f4       	brne	.+18     	; 0x162 <sendByte+0x1a>
 150:	80 91 e6 00 	lds	r24, 0x00E6
 154:	8e 7f       	andi	r24, 0xFE	; 254
 156:	80 93 e6 00 	sts	0x00E6, r24
 15a:	6e e4       	ldi	r22, 0x4E	; 78
 15c:	0e 94 5c 00 	call	0xb8	; 0xb8 <I2C_TransmitByAddr>
 160:	08 c0       	rjmp	.+16     	; 0x172 <sendByte+0x2a>
 162:	80 91 e6 00 	lds	r24, 0x00E6
 166:	81 60       	ori	r24, 0x01	; 1
 168:	80 93 e6 00 	sts	0x00E6, r24
 16c:	6e e4       	ldi	r22, 0x4E	; 78
 16e:	0e 94 5c 00 	call	0xb8	; 0xb8 <I2C_TransmitByAddr>
 172:	81 2f       	mov	r24, r17
 174:	82 95       	swap	r24
 176:	8f 70       	andi	r24, 0x0F	; 15
 178:	0e 94 84 00 	call	0x108	; 0x108 <sendHalfByte>
 17c:	81 2f       	mov	r24, r17
 17e:	0e 94 84 00 	call	0x108	; 0x108 <sendHalfByte>
 182:	1f 91       	pop	r17
 184:	08 95       	ret

00000186 <LCD_Init>:
 186:	83 e0       	ldi	r24, 0x03	; 3
 188:	0e 94 84 00 	call	0x108	; 0x108 <sendHalfByte>
	#else
		//round up by default
		__ticks_dc = (uint32_t)(ceil(fabs(__tmp)));
	#endif

	__builtin_avr_delay_cycles(__ticks_dc);
 18c:	81 ee       	ldi	r24, 0xE1	; 225
 18e:	94 e0       	ldi	r25, 0x04	; 4
 190:	01 97       	sbiw	r24, 0x01	; 1
 192:	f1 f7       	brne	.-4      	; 0x190 <LCD_Init+0xa>
 194:	00 c0       	rjmp	.+0      	; 0x196 <LCD_Init+0x10>
 196:	00 00       	nop
 198:	83 e0       	ldi	r24, 0x03	; 3
 19a:	0e 94 84 00 	call	0x108	; 0x108 <sendHalfByte>
	#else
		//round up by default
		__ticks_dc = (uint32_t)(ceil(fabs(__tmp)));
	#endif

	__builtin_avr_delay_cycles(__ticks_dc);
 19e:	91 e2       	ldi	r25, 0x21	; 33
 1a0:	9a 95       	dec	r25
 1a2:	f1 f7       	brne	.-4      	; 0x1a0 <LCD_Init+0x1a>
 1a4:	00 00       	nop
 1a6:	83 e0       	ldi	r24, 0x03	; 3
 1a8:	0e 94 84 00 	call	0x108	; 0x108 <sendHalfByte>
	#else
		//round up by default
		__ticks_dc = (uint32_t)(ceil(fabs(__tmp)));
	#endif

	__builtin_avr_delay_cycles(__ticks_dc);
 1ac:	89 ef       	ldi	r24, 0xF9	; 249
 1ae:	90 e0       	ldi	r25, 0x00	; 0
 1b0:	01 97       	sbiw	r24, 0x01	; 1
 1b2:	f1 f7       	brne	.-4      	; 0x1b0 <LCD_Init+0x2a>
 1b4:	00 c0       	rjmp	.+0      	; 0x1b6 <LCD_Init+0x30>
 1b6:	00 00       	nop
 1b8:	82 e0       	ldi	r24, 0x02	; 2
 1ba:	0e 94 84 00 	call	0x108	; 0x108 <sendHalfByte>
 1be:	89 ef       	ldi	r24, 0xF9	; 249
 1c0:	90 e0       	ldi	r25, 0x00	; 0
 1c2:	01 97       	sbiw	r24, 0x01	; 1
 1c4:	f1 f7       	brne	.-4      	; 0x1c2 <LCD_Init+0x3c>
 1c6:	00 c0       	rjmp	.+0      	; 0x1c8 <LCD_Init+0x42>
 1c8:	00 00       	nop
 1ca:	88 e2       	ldi	r24, 0x28	; 40
 1cc:	60 e0       	ldi	r22, 0x00	; 0
 1ce:	0e 94 a4 00 	call	0x148	; 0x148 <sendByte>
 1d2:	89 ef       	ldi	r24, 0xF9	; 249
 1d4:	90 e0       	ldi	r25, 0x00	; 0
 1d6:	01 97       	sbiw	r24, 0x01	; 1
 1d8:	f1 f7       	brne	.-4      	; 0x1d6 <LCD_Init+0x50>
 1da:	00 c0       	rjmp	.+0      	; 0x1dc <LCD_Init+0x56>
 1dc:	00 00       	nop
 1de:	8e e0       	ldi	r24, 0x0E	; 14
 1e0:	60 e0       	ldi	r22, 0x00	; 0
 1e2:	0e 94 a4 00 	call	0x148	; 0x148 <sendByte>
 1e6:	89 ef       	ldi	r24, 0xF9	; 249
 1e8:	90 e0       	ldi	r25, 0x00	; 0
 1ea:	01 97       	sbiw	r24, 0x01	; 1
 1ec:	f1 f7       	brne	.-4      	; 0x1ea <LCD_Init+0x64>
 1ee:	00 c0       	rjmp	.+0      	; 0x1f0 <LCD_Init+0x6a>
 1f0:	00 00       	nop
 1f2:	80 91 e6 00 	lds	r24, 0x00E6
 1f6:	88 60       	ori	r24, 0x08	; 8
 1f8:	80 93 e6 00 	sts	0x00E6, r24
 1fc:	6e e4       	ldi	r22, 0x4E	; 78
 1fe:	0e 94 5c 00 	call	0xb8	; 0xb8 <I2C_TransmitByAddr>
 202:	80 91 e6 00 	lds	r24, 0x00E6
 206:	8d 7f       	andi	r24, 0xFD	; 253
 208:	80 93 e6 00 	sts	0x00E6, r24
 20c:	6e e4       	ldi	r22, 0x4E	; 78
 20e:	0e 94 5c 00 	call	0xb8	; 0xb8 <I2C_TransmitByAddr>
 212:	08 95       	ret

00000214 <LCD_sendString>:
 214:	1f 93       	push	r17
 216:	cf 93       	push	r28
 218:	df 93       	push	r29
 21a:	ec 01       	movw	r28, r24
 21c:	88 81       	ld	r24, Y
 21e:	88 23       	and	r24, r24
 220:	59 f0       	breq	.+22     	; 0x238 <LCD_sendString+0x24>
 222:	10 e0       	ldi	r17, 0x00	; 0
 224:	61 e0       	ldi	r22, 0x01	; 1
 226:	0e 94 a4 00 	call	0x148	; 0x148 <sendByte>
 22a:	1f 5f       	subi	r17, 0xFF	; 255
 22c:	fe 01       	movw	r30, r28
 22e:	e1 0f       	add	r30, r17
 230:	f1 1d       	adc	r31, r1
 232:	80 81       	ld	r24, Z
 234:	88 23       	and	r24, r24
 236:	b1 f7       	brne	.-20     	; 0x224 <LCD_sendString+0x10>
 238:	df 91       	pop	r29
 23a:	cf 91       	pop	r28
 23c:	1f 91       	pop	r17
 23e:	08 95       	ret

00000240 <LCD_setPosition>:
 240:	61 30       	cpi	r22, 0x01	; 1
 242:	61 f0       	breq	.+24     	; 0x25c <LCD_setPosition+0x1c>
 244:	61 30       	cpi	r22, 0x01	; 1
 246:	28 f0       	brcs	.+10     	; 0x252 <LCD_setPosition+0x12>
 248:	62 30       	cpi	r22, 0x02	; 2
 24a:	71 f0       	breq	.+28     	; 0x268 <LCD_setPosition+0x28>
 24c:	63 30       	cpi	r22, 0x03	; 3
 24e:	b9 f4       	brne	.+46     	; 0x27e <LCD_setPosition+0x3e>
 250:	11 c0       	rjmp	.+34     	; 0x274 <LCD_setPosition+0x34>
 252:	80 68       	ori	r24, 0x80	; 128
 254:	60 e0       	ldi	r22, 0x00	; 0
 256:	0e 94 a4 00 	call	0x148	; 0x148 <sendByte>
 25a:	08 95       	ret
 25c:	80 5c       	subi	r24, 0xC0	; 192
 25e:	80 68       	ori	r24, 0x80	; 128
 260:	60 e0       	ldi	r22, 0x00	; 0
 262:	0e 94 a4 00 	call	0x148	; 0x148 <sendByte>
 266:	08 95       	ret
 268:	80 5f       	subi	r24, 0xF0	; 240
 26a:	80 68       	ori	r24, 0x80	; 128
 26c:	60 e0       	ldi	r22, 0x00	; 0
 26e:	0e 94 a4 00 	call	0x148	; 0x148 <sendByte>
 272:	08 95       	ret
 274:	80 5b       	subi	r24, 0xB0	; 176
 276:	80 68       	ori	r24, 0x80	; 128
 278:	60 e0       	ldi	r22, 0x00	; 0
 27a:	0e 94 a4 00 	call	0x148	; 0x148 <sendByte>
 27e:	08 95       	ret

00000280 <LCD_clear>:
 280:	81 e0       	ldi	r24, 0x01	; 1
 282:	60 e0       	ldi	r22, 0x00	; 0
 284:	0e 94 a4 00 	call	0x148	; 0x148 <sendByte>
 288:	81 ee       	ldi	r24, 0xE1	; 225
 28a:	94 e0       	ldi	r25, 0x04	; 4
 28c:	01 97       	sbiw	r24, 0x01	; 1
 28e:	f1 f7       	brne	.-4      	; 0x28c <LCD_clear+0xc>
 290:	00 c0       	rjmp	.+0      	; 0x292 <LCD_clear+0x12>
 292:	00 00       	nop
 294:	08 95       	ret

00000296 <ColorToLCD>:
	return 0; 
}

void ColorToLCD()
{
	DDRD |= RED | GREEN | BLUE | BTN1 | BTN2;
 296:	81 b3       	in	r24, 0x11	; 17
 298:	8c 6b       	ori	r24, 0xBC	; 188
 29a:	81 bb       	out	0x11, r24	; 17
	TCCR2 |= (1<<WGM21) | (1<<WGM20) | (1<<COM21) | (1<<CS20);	
 29c:	85 b5       	in	r24, 0x25	; 37
 29e:	89 66       	ori	r24, 0x69	; 105
 2a0:	85 bd       	out	0x25, r24	; 37
	TCCR1A |= (1<<COM1A1) | (1<<COM1B1) | (1<<WGM10);
 2a2:	8f b5       	in	r24, 0x2f	; 47
 2a4:	81 6a       	ori	r24, 0xA1	; 161
 2a6:	8f bd       	out	0x2f, r24	; 47
	TCCR1B |= (1<<WGM12) | (1<<CS10); 
 2a8:	8e b5       	in	r24, 0x2e	; 46
 2aa:	89 60       	ori	r24, 0x09	; 9
 2ac:	8e bd       	out	0x2e, r24	; 46
	
	DDRC |= (1<<PC0) | (1<<PC1);
 2ae:	84 b3       	in	r24, 0x14	; 20
 2b0:	83 60       	ori	r24, 0x03	; 3
 2b2:	84 bb       	out	0x14, r24	; 20
	I2C_Init(); 
 2b4:	0e 94 49 00 	call	0x92	; 0x92 <I2C_Init>
 2b8:	83 ed       	ldi	r24, 0xD3	; 211
 2ba:	90 e3       	ldi	r25, 0x30	; 48
 2bc:	01 97       	sbiw	r24, 0x01	; 1
 2be:	f1 f7       	brne	.-4      	; 0x2bc <ColorToLCD+0x26>
 2c0:	00 c0       	rjmp	.+0      	; 0x2c2 <ColorToLCD+0x2c>
 2c2:	00 00       	nop
	_delay_ms(50); 
	LCD_Init();
 2c4:	0e 94 c3 00 	call	0x186	; 0x186 <LCD_Init>
	
	LCD_clear();
 2c8:	0e 94 40 01 	call	0x280	; 0x280 <LCD_clear>
		
	MCUCR = 0x0F;
 2cc:	8f e0       	ldi	r24, 0x0F	; 15
 2ce:	85 bf       	out	0x35, r24	; 53
	GICR = 0xC0; 
 2d0:	80 ec       	ldi	r24, 0xC0	; 192
 2d2:	8b bf       	out	0x3b, r24	; 59
	sei();
 2d4:	78 94       	sei
 2d6:	ff cf       	rjmp	.-2      	; 0x2d6 <ColorToLCD+0x40>

000002d8 <main>:
int flag = 0;
char string[128];
char txt = 'a';

int main(void) 
{ 
 2d8:	0f 93       	push	r16
 2da:	1f 93       	push	r17
 2dc:	cf 93       	push	r28
 2de:	df 93       	push	r29
//----------------------	
	ColorToLCD();
 2e0:	0e 94 4b 01 	call	0x296	; 0x296 <ColorToLCD>
//----------------------
	
//	LCD_clear();
 
// 	_delay_ms(1000); 
	LCD_clear(); 
 2e4:	0e 94 40 01 	call	0x280	; 0x280 <LCD_clear>
	LCD_setPosition(0,0);
 2e8:	80 e0       	ldi	r24, 0x00	; 0
 2ea:	60 e0       	ldi	r22, 0x00	; 0
 2ec:	0e 94 20 01 	call	0x240	; 0x240 <LCD_setPosition>
 2f0:	cb ee       	ldi	r28, 0xEB	; 235
 2f2:	d0 e0       	ldi	r29, 0x00	; 0
int count = 0;
int flag = 0;
char string[128];
char txt = 'a';

int main(void) 
 2f4:	8e 01       	movw	r16, r28
 2f6:	0b 5f       	subi	r16, 0xFB	; 251
 2f8:	1f 4f       	sbci	r17, 0xFF	; 255
// 	_delay_ms(1000); 
	LCD_clear(); 
	LCD_setPosition(0,0);
	for (int i = 0; i < 5; i++)
	{
		string[i] = UARTReceive();
 2fa:	0e 94 29 03 	call	0x652	; 0x652 <UARTReceive>
 2fe:	89 93       	st	Y+, r24
//	LCD_clear();
 
// 	_delay_ms(1000); 
	LCD_clear(); 
	LCD_setPosition(0,0);
	for (int i = 0; i < 5; i++)
 300:	c0 17       	cp	r28, r16
 302:	d1 07       	cpc	r29, r17
 304:	d1 f7       	brne	.-12     	; 0x2fa <main+0x22>
	{
		string[i] = UARTReceive();
	} 
		
 	LCD_sendString(string); 
 306:	8b ee       	ldi	r24, 0xEB	; 235
 308:	90 e0       	ldi	r25, 0x00	; 0
 30a:	0e 94 0a 01 	call	0x214	; 0x214 <LCD_sendString>
 30e:	ff cf       	rjmp	.-2      	; 0x30e <main+0x36>

00000310 <UARTtoLCD>:
		
	}
}

void UARTtoLCD()
{
 310:	1f 93       	push	r17
 312:	cf 93       	push	r28
 314:	df 93       	push	r29
	DDRD |= 0x03;
 316:	81 b3       	in	r24, 0x11	; 17
 318:	83 60       	ori	r24, 0x03	; 3
 31a:	81 bb       	out	0x11, r24	; 17
	DDRC |= (1<<PC0) | (1<<PC1);
 31c:	84 b3       	in	r24, 0x14	; 20
 31e:	83 60       	ori	r24, 0x03	; 3
 320:	84 bb       	out	0x14, r24	; 20
	I2C_Init(); 
 322:	0e 94 49 00 	call	0x92	; 0x92 <I2C_Init>
 326:	83 e2       	ldi	r24, 0x23	; 35
 328:	94 ef       	ldi	r25, 0xF4	; 244
 32a:	01 97       	sbiw	r24, 0x01	; 1
 32c:	f1 f7       	brne	.-4      	; 0x32a <UARTtoLCD+0x1a>
 32e:	00 c0       	rjmp	.+0      	; 0x330 <UARTtoLCD+0x20>
 330:	00 00       	nop
	_delay_ms(250); 
	LCD_Init();
 332:	0e 94 c3 00 	call	0x186	; 0x186 <LCD_Init>
	UARTInit();
 336:	0e 94 1b 03 	call	0x636	; 0x636 <UARTInit>
	
	LCD_clear();
 33a:	0e 94 40 01 	call	0x280	; 0x280 <LCD_clear>
	while (1)
	{		
		while (txt != '\0')
		{
			txt = UARTReceive();
			string[count] = txt;
 33e:	cb ee       	ldi	r28, 0xEB	; 235
 340:	d0 e0       	ldi	r29, 0x00	; 0
			count++;
		}
		txt = 'a';
 342:	11 e6       	ldi	r17, 0x61	; 97
 344:	12 c0       	rjmp	.+36     	; 0x36a <UARTtoLCD+0x5a>
	
	while (1)
	{		
		while (txt != '\0')
		{
			txt = UARTReceive();
 346:	0e 94 29 03 	call	0x652	; 0x652 <UARTReceive>
 34a:	80 93 e5 00 	sts	0x00E5, r24
			string[count] = txt;
 34e:	20 91 e7 00 	lds	r18, 0x00E7
 352:	30 91 e8 00 	lds	r19, 0x00E8
 356:	fe 01       	movw	r30, r28
 358:	e2 0f       	add	r30, r18
 35a:	f3 1f       	adc	r31, r19
 35c:	80 83       	st	Z, r24
			count++;
 35e:	2f 5f       	subi	r18, 0xFF	; 255
 360:	3f 4f       	sbci	r19, 0xFF	; 255
 362:	30 93 e8 00 	sts	0x00E8, r19
 366:	20 93 e7 00 	sts	0x00E7, r18
	
	LCD_clear();
	
	while (1)
	{		
		while (txt != '\0')
 36a:	80 91 e5 00 	lds	r24, 0x00E5
 36e:	88 23       	and	r24, r24
 370:	51 f7       	brne	.-44     	; 0x346 <UARTtoLCD+0x36>
		{
			txt = UARTReceive();
			string[count] = txt;
			count++;
		}
		txt = 'a';
 372:	10 93 e5 00 	sts	0x00E5, r17
		LCD_setPosition(0,0);
 376:	60 e0       	ldi	r22, 0x00	; 0
 378:	0e 94 20 01 	call	0x240	; 0x240 <LCD_setPosition>
		LCD_sendString(string);
 37c:	ce 01       	movw	r24, r28
 37e:	0e 94 0a 01 	call	0x214	; 0x214 <LCD_sendString>
 382:	f3 cf       	rjmp	.-26     	; 0x36a <UARTtoLCD+0x5a>

00000384 <Test>:
	
}

void Test()
{
	LCD_setPosition(0,0);
 384:	80 e0       	ldi	r24, 0x00	; 0
 386:	60 e0       	ldi	r22, 0x00	; 0
 388:	0e 94 20 01 	call	0x240	; 0x240 <LCD_setPosition>
	//LCD_sendString(UARTReceive(), 1);
}
 38c:	08 95       	ret

0000038e <colorRGB>:

void colorRGB(int R, int G, int B)
{
	OCR2 = R; //RED 		
 38e:	83 bd       	out	0x23, r24	; 35
	OCR1AL = G; //GREEN
 390:	6a bd       	out	0x2a, r22	; 42
	OCR1BL = B; //BLUE
 392:	48 bd       	out	0x28, r20	; 40
// 
// 	OCR2 = G; //RED 		
// 	OCR1AL = R; //GREEN
// 	OCR1BL = B; //BLUE

}
 394:	08 95       	ret

00000396 <color>:
	color(count);
}

void color(int num)
{
	switch (num)
 396:	84 30       	cpi	r24, 0x04	; 4
 398:	91 05       	cpc	r25, r1
 39a:	09 f4       	brne	.+2      	; 0x39e <color+0x8>
 39c:	67 c0       	rjmp	.+206    	; 0x46c <__stack+0xd>
 39e:	85 30       	cpi	r24, 0x05	; 5
 3a0:	91 05       	cpc	r25, r1
 3a2:	64 f4       	brge	.+24     	; 0x3bc <color+0x26>
 3a4:	82 30       	cpi	r24, 0x02	; 2
 3a6:	91 05       	cpc	r25, r1
 3a8:	79 f1       	breq	.+94     	; 0x408 <color+0x72>
 3aa:	83 30       	cpi	r24, 0x03	; 3
 3ac:	91 05       	cpc	r25, r1
 3ae:	0c f0       	brlt	.+2      	; 0x3b2 <color+0x1c>
 3b0:	44 c0       	rjmp	.+136    	; 0x43a <color+0xa4>
 3b2:	81 30       	cpi	r24, 0x01	; 1
 3b4:	91 05       	cpc	r25, r1
 3b6:	09 f0       	breq	.+2      	; 0x3ba <color+0x24>
 3b8:	bd c0       	rjmp	.+378    	; 0x534 <__stack+0xd5>
 3ba:	0d c0       	rjmp	.+26     	; 0x3d6 <color+0x40>
 3bc:	86 30       	cpi	r24, 0x06	; 6
 3be:	91 05       	cpc	r25, r1
 3c0:	09 f4       	brne	.+2      	; 0x3c4 <color+0x2e>
 3c2:	86 c0       	rjmp	.+268    	; 0x4d0 <__stack+0x71>
 3c4:	86 30       	cpi	r24, 0x06	; 6
 3c6:	91 05       	cpc	r25, r1
 3c8:	0c f4       	brge	.+2      	; 0x3cc <color+0x36>
 3ca:	69 c0       	rjmp	.+210    	; 0x49e <__stack+0x3f>
 3cc:	87 30       	cpi	r24, 0x07	; 7
 3ce:	91 05       	cpc	r25, r1
 3d0:	09 f0       	breq	.+2      	; 0x3d4 <color+0x3e>
 3d2:	b0 c0       	rjmp	.+352    	; 0x534 <__stack+0xd5>
 3d4:	96 c0       	rjmp	.+300    	; 0x502 <__stack+0xa3>
		{
			case 1:
				colorRGB(255,0,0);				
 3d6:	8f ef       	ldi	r24, 0xFF	; 255
 3d8:	90 e0       	ldi	r25, 0x00	; 0
 3da:	60 e0       	ldi	r22, 0x00	; 0
 3dc:	70 e0       	ldi	r23, 0x00	; 0
 3de:	40 e0       	ldi	r20, 0x00	; 0
 3e0:	50 e0       	ldi	r21, 0x00	; 0
 3e2:	0e 94 c7 01 	call	0x38e	; 0x38e <colorRGB>
				LCD_setPosition(0,0);
 3e6:	80 e0       	ldi	r24, 0x00	; 0
 3e8:	60 e0       	ldi	r22, 0x00	; 0
 3ea:	0e 94 20 01 	call	0x240	; 0x240 <LCD_setPosition>
				LCD_sendString("(255, 0, 0)");
 3ee:	80 e6       	ldi	r24, 0x60	; 96
 3f0:	90 e0       	ldi	r25, 0x00	; 0
 3f2:	0e 94 0a 01 	call	0x214	; 0x214 <LCD_sendString>
				LCD_setPosition(0,1);
 3f6:	80 e0       	ldi	r24, 0x00	; 0
 3f8:	61 e0       	ldi	r22, 0x01	; 1
 3fa:	0e 94 20 01 	call	0x240	; 0x240 <LCD_setPosition>
				LCD_sendString("Red");
 3fe:	8c e6       	ldi	r24, 0x6C	; 108
 400:	90 e0       	ldi	r25, 0x00	; 0
 402:	0e 94 0a 01 	call	0x214	; 0x214 <LCD_sendString>
				break;
 406:	08 95       	ret
			case 2:
				colorRGB(255,165,0);				
 408:	8f ef       	ldi	r24, 0xFF	; 255
 40a:	90 e0       	ldi	r25, 0x00	; 0
 40c:	65 ea       	ldi	r22, 0xA5	; 165
 40e:	70 e0       	ldi	r23, 0x00	; 0
 410:	40 e0       	ldi	r20, 0x00	; 0
 412:	50 e0       	ldi	r21, 0x00	; 0
 414:	0e 94 c7 01 	call	0x38e	; 0x38e <colorRGB>
				LCD_setPosition(0,0);
 418:	80 e0       	ldi	r24, 0x00	; 0
 41a:	60 e0       	ldi	r22, 0x00	; 0
 41c:	0e 94 20 01 	call	0x240	; 0x240 <LCD_setPosition>
				LCD_sendString("(255, 165, 0)");
 420:	80 e7       	ldi	r24, 0x70	; 112
 422:	90 e0       	ldi	r25, 0x00	; 0
 424:	0e 94 0a 01 	call	0x214	; 0x214 <LCD_sendString>
				LCD_setPosition(0,1);
 428:	80 e0       	ldi	r24, 0x00	; 0
 42a:	61 e0       	ldi	r22, 0x01	; 1
 42c:	0e 94 20 01 	call	0x240	; 0x240 <LCD_setPosition>
				LCD_sendString("Orange");
 430:	8e e7       	ldi	r24, 0x7E	; 126
 432:	90 e0       	ldi	r25, 0x00	; 0
 434:	0e 94 0a 01 	call	0x214	; 0x214 <LCD_sendString>
				break;
 438:	08 95       	ret
			case 3:
				colorRGB(255,255,0);				
 43a:	8f ef       	ldi	r24, 0xFF	; 255
 43c:	90 e0       	ldi	r25, 0x00	; 0
 43e:	6f ef       	ldi	r22, 0xFF	; 255
 440:	70 e0       	ldi	r23, 0x00	; 0
 442:	40 e0       	ldi	r20, 0x00	; 0
 444:	50 e0       	ldi	r21, 0x00	; 0
 446:	0e 94 c7 01 	call	0x38e	; 0x38e <colorRGB>
				LCD_setPosition(0,0);
 44a:	80 e0       	ldi	r24, 0x00	; 0
 44c:	60 e0       	ldi	r22, 0x00	; 0
 44e:	0e 94 20 01 	call	0x240	; 0x240 <LCD_setPosition>
				LCD_sendString("(255, 255, 0)");
 452:	85 e8       	ldi	r24, 0x85	; 133
 454:	90 e0       	ldi	r25, 0x00	; 0
 456:	0e 94 0a 01 	call	0x214	; 0x214 <LCD_sendString>
				LCD_setPosition(0,1);
 45a:	80 e0       	ldi	r24, 0x00	; 0
 45c:	61 e0       	ldi	r22, 0x01	; 1
 45e:	0e 94 20 01 	call	0x240	; 0x240 <LCD_setPosition>
				LCD_sendString("Yellow");
 462:	83 e9       	ldi	r24, 0x93	; 147
 464:	90 e0       	ldi	r25, 0x00	; 0
 466:	0e 94 0a 01 	call	0x214	; 0x214 <LCD_sendString>
				break;
 46a:	08 95       	ret
			case 4:
				colorRGB(0,255,0);				
 46c:	80 e0       	ldi	r24, 0x00	; 0
 46e:	90 e0       	ldi	r25, 0x00	; 0
 470:	6f ef       	ldi	r22, 0xFF	; 255
 472:	70 e0       	ldi	r23, 0x00	; 0
 474:	40 e0       	ldi	r20, 0x00	; 0
 476:	50 e0       	ldi	r21, 0x00	; 0
 478:	0e 94 c7 01 	call	0x38e	; 0x38e <colorRGB>
				LCD_setPosition(0,0);
 47c:	80 e0       	ldi	r24, 0x00	; 0
 47e:	60 e0       	ldi	r22, 0x00	; 0
 480:	0e 94 20 01 	call	0x240	; 0x240 <LCD_setPosition>
				LCD_sendString("(0, 255, 0)");
 484:	8a e9       	ldi	r24, 0x9A	; 154
 486:	90 e0       	ldi	r25, 0x00	; 0
 488:	0e 94 0a 01 	call	0x214	; 0x214 <LCD_sendString>
				LCD_setPosition(0,1);
 48c:	80 e0       	ldi	r24, 0x00	; 0
 48e:	61 e0       	ldi	r22, 0x01	; 1
 490:	0e 94 20 01 	call	0x240	; 0x240 <LCD_setPosition>
				LCD_sendString("Green");
 494:	86 ea       	ldi	r24, 0xA6	; 166
 496:	90 e0       	ldi	r25, 0x00	; 0
 498:	0e 94 0a 01 	call	0x214	; 0x214 <LCD_sendString>
				break;
 49c:	08 95       	ret
			case 5:
				colorRGB(0,255,255);				
 49e:	80 e0       	ldi	r24, 0x00	; 0
 4a0:	90 e0       	ldi	r25, 0x00	; 0
 4a2:	6f ef       	ldi	r22, 0xFF	; 255
 4a4:	70 e0       	ldi	r23, 0x00	; 0
 4a6:	4f ef       	ldi	r20, 0xFF	; 255
 4a8:	50 e0       	ldi	r21, 0x00	; 0
 4aa:	0e 94 c7 01 	call	0x38e	; 0x38e <colorRGB>
				LCD_setPosition(0,0);
 4ae:	80 e0       	ldi	r24, 0x00	; 0
 4b0:	60 e0       	ldi	r22, 0x00	; 0
 4b2:	0e 94 20 01 	call	0x240	; 0x240 <LCD_setPosition>
				LCD_sendString("(0, 255, 255)");
 4b6:	8c ea       	ldi	r24, 0xAC	; 172
 4b8:	90 e0       	ldi	r25, 0x00	; 0
 4ba:	0e 94 0a 01 	call	0x214	; 0x214 <LCD_sendString>
				LCD_setPosition(0,1);
 4be:	80 e0       	ldi	r24, 0x00	; 0
 4c0:	61 e0       	ldi	r22, 0x01	; 1
 4c2:	0e 94 20 01 	call	0x240	; 0x240 <LCD_setPosition>
				LCD_sendString("Cyan");
 4c6:	8a eb       	ldi	r24, 0xBA	; 186
 4c8:	90 e0       	ldi	r25, 0x00	; 0
 4ca:	0e 94 0a 01 	call	0x214	; 0x214 <LCD_sendString>
				break;
 4ce:	08 95       	ret
			case 6:
				colorRGB(0,0,255);				
 4d0:	80 e0       	ldi	r24, 0x00	; 0
 4d2:	90 e0       	ldi	r25, 0x00	; 0
 4d4:	60 e0       	ldi	r22, 0x00	; 0
 4d6:	70 e0       	ldi	r23, 0x00	; 0
 4d8:	4f ef       	ldi	r20, 0xFF	; 255
 4da:	50 e0       	ldi	r21, 0x00	; 0
 4dc:	0e 94 c7 01 	call	0x38e	; 0x38e <colorRGB>
				LCD_setPosition(0,0);
 4e0:	80 e0       	ldi	r24, 0x00	; 0
 4e2:	60 e0       	ldi	r22, 0x00	; 0
 4e4:	0e 94 20 01 	call	0x240	; 0x240 <LCD_setPosition>
				LCD_sendString("(0, 0, 255)");
 4e8:	8f eb       	ldi	r24, 0xBF	; 191
 4ea:	90 e0       	ldi	r25, 0x00	; 0
 4ec:	0e 94 0a 01 	call	0x214	; 0x214 <LCD_sendString>
				LCD_setPosition(0,1);
 4f0:	80 e0       	ldi	r24, 0x00	; 0
 4f2:	61 e0       	ldi	r22, 0x01	; 1
 4f4:	0e 94 20 01 	call	0x240	; 0x240 <LCD_setPosition>
				LCD_sendString("Blue");
 4f8:	8b ec       	ldi	r24, 0xCB	; 203
 4fa:	90 e0       	ldi	r25, 0x00	; 0
 4fc:	0e 94 0a 01 	call	0x214	; 0x214 <LCD_sendString>
				break;			
 500:	08 95       	ret
			case 7:
				colorRGB(128,0,128);				
 502:	80 e8       	ldi	r24, 0x80	; 128
 504:	90 e0       	ldi	r25, 0x00	; 0
 506:	60 e0       	ldi	r22, 0x00	; 0
 508:	70 e0       	ldi	r23, 0x00	; 0
 50a:	40 e8       	ldi	r20, 0x80	; 128
 50c:	50 e0       	ldi	r21, 0x00	; 0
 50e:	0e 94 c7 01 	call	0x38e	; 0x38e <colorRGB>
				LCD_setPosition(0,0);
 512:	80 e0       	ldi	r24, 0x00	; 0
 514:	60 e0       	ldi	r22, 0x00	; 0
 516:	0e 94 20 01 	call	0x240	; 0x240 <LCD_setPosition>
				LCD_sendString("(128, 0, 128)");
 51a:	80 ed       	ldi	r24, 0xD0	; 208
 51c:	90 e0       	ldi	r25, 0x00	; 0
 51e:	0e 94 0a 01 	call	0x214	; 0x214 <LCD_sendString>
				LCD_setPosition(0,1);
 522:	80 e0       	ldi	r24, 0x00	; 0
 524:	61 e0       	ldi	r22, 0x01	; 1
 526:	0e 94 20 01 	call	0x240	; 0x240 <LCD_setPosition>
				LCD_sendString("Violet");
 52a:	8e ed       	ldi	r24, 0xDE	; 222
 52c:	90 e0       	ldi	r25, 0x00	; 0
 52e:	0e 94 0a 01 	call	0x214	; 0x214 <LCD_sendString>
				break;
 532:	08 95       	ret
			default:
				colorRGB(0,0,0);
 534:	80 e0       	ldi	r24, 0x00	; 0
 536:	90 e0       	ldi	r25, 0x00	; 0
 538:	60 e0       	ldi	r22, 0x00	; 0
 53a:	70 e0       	ldi	r23, 0x00	; 0
 53c:	40 e0       	ldi	r20, 0x00	; 0
 53e:	50 e0       	ldi	r21, 0x00	; 0
 540:	0e 94 c7 01 	call	0x38e	; 0x38e <colorRGB>
 544:	08 95       	ret

00000546 <__vector_2>:
	LCD_clear();
	color(count);
}

ISR(INT1_vect)
{
 546:	1f 92       	push	r1
 548:	0f 92       	push	r0
 54a:	0f b6       	in	r0, 0x3f	; 63
 54c:	0f 92       	push	r0
 54e:	11 24       	eor	r1, r1
 550:	2f 93       	push	r18
 552:	3f 93       	push	r19
 554:	4f 93       	push	r20
 556:	5f 93       	push	r21
 558:	6f 93       	push	r22
 55a:	7f 93       	push	r23
 55c:	8f 93       	push	r24
 55e:	9f 93       	push	r25
 560:	af 93       	push	r26
 562:	bf 93       	push	r27
 564:	ef 93       	push	r30
 566:	ff 93       	push	r31
	count--;
 568:	80 91 e7 00 	lds	r24, 0x00E7
 56c:	90 91 e8 00 	lds	r25, 0x00E8
 570:	01 97       	sbiw	r24, 0x01	; 1
 572:	90 93 e8 00 	sts	0x00E8, r25
 576:	80 93 e7 00 	sts	0x00E7, r24
	if (count <= 0)
 57a:	18 16       	cp	r1, r24
 57c:	19 06       	cpc	r1, r25
 57e:	34 f0       	brlt	.+12     	; 0x58c <__vector_2+0x46>
	{
		count = 7;
 580:	87 e0       	ldi	r24, 0x07	; 7
 582:	90 e0       	ldi	r25, 0x00	; 0
 584:	90 93 e8 00 	sts	0x00E8, r25
 588:	80 93 e7 00 	sts	0x00E7, r24
	}
	LCD_clear();
 58c:	0e 94 40 01 	call	0x280	; 0x280 <LCD_clear>
	color(count);
 590:	80 91 e7 00 	lds	r24, 0x00E7
 594:	90 91 e8 00 	lds	r25, 0x00E8
 598:	0e 94 cb 01 	call	0x396	; 0x396 <color>
}
 59c:	ff 91       	pop	r31
 59e:	ef 91       	pop	r30
 5a0:	bf 91       	pop	r27
 5a2:	af 91       	pop	r26
 5a4:	9f 91       	pop	r25
 5a6:	8f 91       	pop	r24
 5a8:	7f 91       	pop	r23
 5aa:	6f 91       	pop	r22
 5ac:	5f 91       	pop	r21
 5ae:	4f 91       	pop	r20
 5b0:	3f 91       	pop	r19
 5b2:	2f 91       	pop	r18
 5b4:	0f 90       	pop	r0
 5b6:	0f be       	out	0x3f, r0	; 63
 5b8:	0f 90       	pop	r0
 5ba:	1f 90       	pop	r1
 5bc:	18 95       	reti

000005be <__vector_1>:
// 	OCR1BL = B; //BLUE

}

ISR(INT0_vect)
{
 5be:	1f 92       	push	r1
 5c0:	0f 92       	push	r0
 5c2:	0f b6       	in	r0, 0x3f	; 63
 5c4:	0f 92       	push	r0
 5c6:	11 24       	eor	r1, r1
 5c8:	2f 93       	push	r18
 5ca:	3f 93       	push	r19
 5cc:	4f 93       	push	r20
 5ce:	5f 93       	push	r21
 5d0:	6f 93       	push	r22
 5d2:	7f 93       	push	r23
 5d4:	8f 93       	push	r24
 5d6:	9f 93       	push	r25
 5d8:	af 93       	push	r26
 5da:	bf 93       	push	r27
 5dc:	ef 93       	push	r30
 5de:	ff 93       	push	r31
	count++;
 5e0:	80 91 e7 00 	lds	r24, 0x00E7
 5e4:	90 91 e8 00 	lds	r25, 0x00E8
 5e8:	01 96       	adiw	r24, 0x01	; 1
 5ea:	90 93 e8 00 	sts	0x00E8, r25
 5ee:	80 93 e7 00 	sts	0x00E7, r24
	if (count >= 8)
 5f2:	88 30       	cpi	r24, 0x08	; 8
 5f4:	91 05       	cpc	r25, r1
 5f6:	34 f0       	brlt	.+12     	; 0x604 <__vector_1+0x46>
	{
		count = 1;
 5f8:	81 e0       	ldi	r24, 0x01	; 1
 5fa:	90 e0       	ldi	r25, 0x00	; 0
 5fc:	90 93 e8 00 	sts	0x00E8, r25
 600:	80 93 e7 00 	sts	0x00E7, r24
	}
	LCD_clear();
 604:	0e 94 40 01 	call	0x280	; 0x280 <LCD_clear>
	color(count);
 608:	80 91 e7 00 	lds	r24, 0x00E7
 60c:	90 91 e8 00 	lds	r25, 0x00E8
 610:	0e 94 cb 01 	call	0x396	; 0x396 <color>
}
 614:	ff 91       	pop	r31
 616:	ef 91       	pop	r30
 618:	bf 91       	pop	r27
 61a:	af 91       	pop	r26
 61c:	9f 91       	pop	r25
 61e:	8f 91       	pop	r24
 620:	7f 91       	pop	r23
 622:	6f 91       	pop	r22
 624:	5f 91       	pop	r21
 626:	4f 91       	pop	r20
 628:	3f 91       	pop	r19
 62a:	2f 91       	pop	r18
 62c:	0f 90       	pop	r0
 62e:	0f be       	out	0x3f, r0	; 63
 630:	0f 90       	pop	r0
 632:	1f 90       	pop	r1
 634:	18 95       	reti

00000636 <UARTInit>:
#include "main.h"
#include "uartlib.h"

void UARTInit()
{		
	UCSRA = 0x00;
 636:	1b b8       	out	0x0b, r1	; 11
	UCSRB |= (1 << RXEN) | (1 << TXEN);
 638:	8a b1       	in	r24, 0x0a	; 10
 63a:	88 61       	ori	r24, 0x18	; 24
 63c:	8a b9       	out	0x0a, r24	; 10
	UCSRC |= (1 << URSEL) | (1 << UCSZ1) | (1 << UCSZ0);
 63e:	80 b5       	in	r24, 0x20	; 32
 640:	86 68       	ori	r24, 0x86	; 134
 642:	80 bd       	out	0x20, r24	; 32
	UBRRL = 25;
 644:	89 e1       	ldi	r24, 0x19	; 25
 646:	89 b9       	out	0x09, r24	; 9
}
 648:	08 95       	ret

0000064a <UARTSend>:

void UARTSend(char Value)
{
	while (!(UCSRA & (1 << UDRE)))
 64a:	5d 9b       	sbis	0x0b, 5	; 11
 64c:	fe cf       	rjmp	.-4      	; 0x64a <UARTSend>
	{
				
	}		
	UDR = Value;
 64e:	8c b9       	out	0x0c, r24	; 12
}
 650:	08 95       	ret

00000652 <UARTReceive>:

char UARTReceive()
{
	while (!(UCSRA & (1 << RXC)))
 652:	5f 9b       	sbis	0x0b, 7	; 11
 654:	fe cf       	rjmp	.-4      	; 0x652 <UARTReceive>
	{
		
	}		
	return UDR; 
 656:	8c b1       	in	r24, 0x0c	; 12
}
 658:	08 95       	ret

0000065a <SendString>:

void SendString(char* str)
{
 65a:	cf 93       	push	r28
 65c:	df 93       	push	r29
 65e:	ec 01       	movw	r28, r24
	while(*str != '\0')
 660:	88 81       	ld	r24, Y
 662:	88 23       	and	r24, r24
 664:	31 f0       	breq	.+12     	; 0x672 <SendString+0x18>
		
	}		
	return UDR; 
}

void SendString(char* str)
 666:	21 96       	adiw	r28, 0x01	; 1
{
	while(*str != '\0')
	{
		UARTSend(*str);
 668:	0e 94 25 03 	call	0x64a	; 0x64a <UARTSend>
	return UDR; 
}

void SendString(char* str)
{
	while(*str != '\0')
 66c:	89 91       	ld	r24, Y+
 66e:	88 23       	and	r24, r24
 670:	d9 f7       	brne	.-10     	; 0x668 <SendString+0xe>
	{
		UARTSend(*str);
		str++;
	}
	//UARTSend(*str);
	UARTSend('\r');
 672:	8d e0       	ldi	r24, 0x0D	; 13
 674:	0e 94 25 03 	call	0x64a	; 0x64a <UARTSend>
	UARTSend('\n');
 678:	8a e0       	ldi	r24, 0x0A	; 10
 67a:	0e 94 25 03 	call	0x64a	; 0x64a <UARTSend>
}
 67e:	df 91       	pop	r29
 680:	cf 91       	pop	r28
 682:	08 95       	ret

00000684 <_exit>:
 684:	f8 94       	cli

00000686 <__stop_program>:
 686:	ff cf       	rjmp	.-2      	; 0x686 <__stop_program>
